target datalayout = "e-m:e-p270:32:32-p271:32:32-p272:64:64-i64:64-i128:128-f80:128-n8:16:32:64-S128"
target triple = "x86_64-unknown-linux-gnu"

%"class.llvh::StringRef" = type { ptr, i64 }
%"class.std::__cxx11::basic_string" = type { %"struct.std::__cxx11::basic_string<char>::_Alloc_hider", i64, %union.anon }
%"struct.std::__cxx11::basic_string<char>::_Alloc_hider" = type { ptr }
%union.anon = type { i64, [8 x i8] }
%"class.std::error_code" = type { i32, ptr }
%"class.llvh::Error" = type { ptr }
%"class.llvh::sys::fs::TempFile" = type <{ i8, [7 x i8], %"class.std::__cxx11::basic_string", i32, [4 x i8] }>
%"class.llvh::ErrorSuccess" = type { %"class.llvh::Error" }

@.str.3 = private unnamed_addr constant [1 x i8] zeroinitializer, align 1

; Function Attrs: mustprogress nounwind uwtable
define linkonce_odr hidden void @_ZN4llvh5Error6setPtrEPNS_13ErrorInfoBaseE(ptr noundef nonnull align 8 dereferenceable(8) %this, ptr noundef %EI) #0 comdat align 2 {
entry:
  %this.addr = alloca ptr, align 8
  %EI.addr = alloca ptr, align 8
  store ptr %this, ptr %this.addr, align 8
  store ptr %EI, ptr %EI.addr, align 8
  %this1 = load ptr, ptr %this.addr, align 8
  %0 = load ptr, ptr %EI.addr, align 8
  %Payload = getelementptr inbounds %"class.llvh::Error", ptr %this1, i32 0, i32 0
  store ptr %0, ptr %Payload, align 8
  ret void
}

; Function Attrs: mustprogress nounwind uwtable
define linkonce_odr hidden noundef ptr @_ZNK4llvh5Error6getPtrEv(ptr noundef nonnull align 8 dereferenceable(8) %this) #0 comdat align 2 {
entry:
  %this.addr = alloca ptr, align 8
  store ptr %this, ptr %this.addr, align 8
  %this1 = load ptr, ptr %this.addr, align 8
  %Payload = getelementptr inbounds %"class.llvh::Error", ptr %this1, i32 0, i32 0
  %0 = load ptr, ptr %Payload, align 8
  %1 = ptrtoint ptr %0 to i64
  %and = and i64 %1, -2
  %2 = inttoptr i64 %and to ptr
  ret ptr %2
}

; Function Attrs: mustprogress nounwind uwtable
define linkonce_odr hidden void @_ZN4llvh5Error15assertIsCheckedEv(ptr noundef nonnull align 8 dereferenceable(8) %this) #0 comdat align 2 {
entry:
  %this.addr = alloca ptr, align 8
  store ptr %this, ptr %this.addr, align 8
  ret void
}

; Function Attrs: mustprogress nounwind uwtable
define linkonce_odr hidden void @_ZN4llvh5ErrorC2Ev(ptr noundef nonnull align 8 dereferenceable(8) %this) unnamed_addr #0 comdat align 2 {
entry:
  %this.addr = alloca ptr, align 8
  store ptr %this, ptr %this.addr, align 8
  %this1 = load ptr, ptr %this.addr, align 8
  %Payload = getelementptr inbounds %"class.llvh::Error", ptr %this1, i32 0, i32 0
  store ptr null, ptr %Payload, align 8
  call void @_ZN4llvh5Error6setPtrEPNS_13ErrorInfoBaseE(ptr noundef nonnull align 8 dereferenceable(8) %this1, ptr noundef null)
  call void @_ZN4llvh5Error10setCheckedEb(ptr noundef nonnull align 8 dereferenceable(8) %this1, i1 noundef zeroext false)
  ret void
}

; Function Attrs: mustprogress nounwind uwtable
define linkonce_odr hidden void @_ZN4llvh5ErrorD2Ev(ptr noundef nonnull align 8 dereferenceable(8) %this) unnamed_addr #0 comdat align 2 {
entry:
  %this.addr = alloca ptr, align 8
  store ptr %this, ptr %this.addr, align 8
  %this1 = load ptr, ptr %this.addr, align 8
  call void @_ZN4llvh5Error15assertIsCheckedEv(ptr noundef nonnull align 8 dereferenceable(8) %this1)
  %call = call noundef ptr @_ZNK4llvh5Error6getPtrEv(ptr noundef nonnull align 8 dereferenceable(8) %this1)
  %isnull = icmp eq ptr %call, null
  br i1 %isnull, label %delete.end, label %delete.notnull

delete.notnull:                                   ; preds = %entry
  %vtable = load ptr, ptr %call, align 8
  %vfn = getelementptr inbounds ptr, ptr %vtable, i64 1
  %0 = load ptr, ptr %vfn, align 8
  call void %0(ptr noundef nonnull align 8 dereferenceable(8) %call) #9
  br label %delete.end

delete.end:                                       ; preds = %delete.notnull, %entry
  ret void
}

; Function Attrs: mustprogress nounwind uwtable
define linkonce_odr hidden noundef nonnull align 8 dereferenceable(8) ptr @_ZN4llvh5ErroraSEOS0_(ptr noundef nonnull align 8 dereferenceable(8) %this, ptr noundef nonnull align 8 dereferenceable(8) %Other) #0 comdat align 2 {
entry:
  %this.addr = alloca ptr, align 8
  %Other.addr = alloca ptr, align 8
  store ptr %this, ptr %this.addr, align 8
  store ptr %Other, ptr %Other.addr, align 8
  %this1 = load ptr, ptr %this.addr, align 8
  call void @_ZN4llvh5Error15assertIsCheckedEv(ptr noundef nonnull align 8 dereferenceable(8) %this1)
  %0 = load ptr, ptr %Other.addr, align 8
  %call = call noundef ptr @_ZNK4llvh5Error6getPtrEv(ptr noundef nonnull align 8 dereferenceable(8) %0)
  call void @_ZN4llvh5Error6setPtrEPNS_13ErrorInfoBaseE(ptr noundef nonnull align 8 dereferenceable(8) %this1, ptr noundef %call)
  call void @_ZN4llvh5Error10setCheckedEb(ptr noundef nonnull align 8 dereferenceable(8) %this1, i1 noundef zeroext false)
  %1 = load ptr, ptr %Other.addr, align 8
  call void @_ZN4llvh5Error6setPtrEPNS_13ErrorInfoBaseE(ptr noundef nonnull align 8 dereferenceable(8) %1, ptr noundef null)
  %2 = load ptr, ptr %Other.addr, align 8
  call void @_ZN4llvh5Error10setCheckedEb(ptr noundef nonnull align 8 dereferenceable(8) %2, i1 noundef zeroext true)
  ret ptr %this1
}

; Function Attrs: mustprogress nounwind uwtable
define linkonce_odr hidden void @_ZN4llvh5Error10setCheckedEb(ptr noundef nonnull align 8 dereferenceable(8) %this, i1 noundef zeroext %V) #0 comdat align 2 {
entry:
  %this.addr = alloca ptr, align 8
  %V.addr = alloca i8, align 1
  store ptr %this, ptr %this.addr, align 8
  %frombool = zext i1 %V to i8
  store i8 %frombool, ptr %V.addr, align 1
  %this1 = load ptr, ptr %this.addr, align 8
  %Payload = getelementptr inbounds %"class.llvh::Error", ptr %this1, i32 0, i32 0
  %0 = load ptr, ptr %Payload, align 8
  %1 = ptrtoint ptr %0 to i64
  %and = and i64 %1, -2
  %2 = load i8, ptr %V.addr, align 1
  %tobool = trunc i8 %2 to i1
  %cond = select i1 %tobool, i32 0, i32 1
  %conv = sext i32 %cond to i64
  %or = or i64 %and, %conv
  %3 = inttoptr i64 %or to ptr
  %Payload2 = getelementptr inbounds %"class.llvh::Error", ptr %this1, i32 0, i32 0
  store ptr %3, ptr %Payload2, align 8
  ret void
}

; Function Attrs: mustprogress nounwind uwtable
define linkonce_odr hidden void @_ZN4llvh12ErrorSuccessC2Ev(ptr noundef nonnull align 8 dereferenceable(8) %this) unnamed_addr #0 comdat align 2 {
entry:
  %this.addr = alloca ptr, align 8
  store ptr %this, ptr %this.addr, align 8
  %this1 = load ptr, ptr %this.addr, align 8
  call void @_ZN4llvh5ErrorC2Ev(ptr noundef nonnull align 8 dereferenceable(8) %this1)
  ret void
}

; Function Attrs: mustprogress nounwind uwtable
define linkonce_odr hidden void @_ZN4llvh12ErrorSuccessD2Ev(ptr noundef nonnull align 8 dereferenceable(8) %this) unnamed_addr #0 comdat align 2 {
entry:
  %this.addr = alloca ptr, align 8
  store ptr %this, ptr %this.addr, align 8
  %this1 = load ptr, ptr %this.addr, align 8
  call void @_ZN4llvh5ErrorD2Ev(ptr noundef nonnull align 8 dereferenceable(8) %this1) #9
  ret void
}

; Function Attrs: mustprogress nounwind uwtable
define linkonce_odr hidden void @_ZN4llvh5ErrorC2EOS0_(ptr noundef nonnull align 8 dereferenceable(8) %this, ptr noundef nonnull align 8 dereferenceable(8) %Other) unnamed_addr #0 comdat align 2 {
entry:
  %this.addr = alloca ptr, align 8
  %Other.addr = alloca ptr, align 8
  store ptr %this, ptr %this.addr, align 8
  store ptr %Other, ptr %Other.addr, align 8
  %this1 = load ptr, ptr %this.addr, align 8
  %Payload = getelementptr inbounds %"class.llvh::Error", ptr %this1, i32 0, i32 0
  store ptr null, ptr %Payload, align 8
  call void @_ZN4llvh5Error10setCheckedEb(ptr noundef nonnull align 8 dereferenceable(8) %this1, i1 noundef zeroext true)
  %0 = load ptr, ptr %Other.addr, align 8
  %call = call noundef nonnull align 8 dereferenceable(8) ptr @_ZN4llvh5ErroraSEOS0_(ptr noundef nonnull align 8 dereferenceable(8) %this1, ptr noundef nonnull align 8 dereferenceable(8) %0)
  ret void
}

; Function Attrs: mustprogress nounwind uwtable
define linkonce_odr hidden void @_ZN4llvh5Error7successEv(ptr noalias sret(%"class.llvh::ErrorSuccess") align 8 %agg.result) #0 comdat align 2 {
entry:
  %result.ptr = alloca ptr, align 8
  store ptr %agg.result, ptr %result.ptr, align 8
  call void @llvm.memset.p0.i64(ptr align 8 %agg.result, i8 0, i64 8, i1 false)
  call void @_ZN4llvh12ErrorSuccessC2Ev(ptr noundef nonnull align 8 dereferenceable(8) %agg.result)
  ret void
}

; Function Attrs: mustprogress nounwind uwtable
define linkonce_odr void @_ZNSt10error_codeC2EiRKNSt3_V214error_categoryE(ptr noundef nonnull align 8 dereferenceable(16) %this, i32 noundef %__v, ptr noundef nonnull align 8 dereferenceable(8) %__cat) unnamed_addr #0 comdat align 2 {
entry:
  %this.addr = alloca ptr, align 8
  %__v.addr = alloca i32, align 4
  %__cat.addr = alloca ptr, align 8
  store ptr %this, ptr %this.addr, align 8
  store i32 %__v, ptr %__v.addr, align 4
  store ptr %__cat, ptr %__cat.addr, align 8
  %this1 = load ptr, ptr %this.addr, align 8
  %_M_value = getelementptr inbounds %"class.std::error_code", ptr %this1, i32 0, i32 0
  %0 = load i32, ptr %__v.addr, align 4
  store i32 %0, ptr %_M_value, align 8
  %_M_cat = getelementptr inbounds %"class.std::error_code", ptr %this1, i32 0, i32 1
  %1 = load ptr, ptr %__cat.addr, align 8
  store ptr %1, ptr %_M_cat, align 8
  ret void
}

; Function Attrs: mustprogress nounwind uwtable
define hidden void @_ZN4llvh3sys2fs8TempFile4keepEv(ptr noalias sret(%"class.llvh::Error") align 8 %agg.result, ptr noundef nonnull align 8 dereferenceable(44) %this) #0 align 2 {
entry:
  %this.addr.i = alloca ptr, align 8
  %Str.addr.i = alloca ptr, align 8
  %result.ptr = alloca ptr, align 8
  %this.addr = alloca ptr, align 8
  %agg.tmp = alloca %"class.llvh::StringRef", align 8
  %EC = alloca %"class.std::error_code", align 8
  %agg.tmp6 = alloca %"class.std::error_code", align 8
  %ref.tmp = alloca %"class.llvh::ErrorSuccess", align 8
  store ptr %agg.result, ptr %result.ptr, align 8
  store ptr %this, ptr %this.addr, align 8
  %this1 = load ptr, ptr %this.addr, align 8
  %Done = getelementptr inbounds %"class.llvh::sys::fs::TempFile", ptr %this1, i32 0, i32 0
  store i8 1, ptr %Done, align 8
  %TmpName = getelementptr inbounds %"class.llvh::sys::fs::TempFile", ptr %this1, i32 0, i32 2
  store ptr %agg.tmp, ptr %this.addr.i, align 8
  store ptr %TmpName, ptr %Str.addr.i, align 8
  %this1.i = load ptr, ptr %this.addr.i, align 8
  %0 = load ptr, ptr %Str.addr.i, align 8
  %call.i = call noundef ptr @_ZNKSt7__cxx1112basic_stringIcSt11char_traitsIcESaIcEE4dataEv(ptr noundef nonnull align 8 dereferenceable(32) %0) #9
  store ptr %call.i, ptr %this1.i, align 8
  %Length.i = getelementptr inbounds %"class.llvh::StringRef", ptr %this1.i, i32 0, i32 1
  %1 = load ptr, ptr %Str.addr.i, align 8
  %call2.i = call noundef i64 @_ZNKSt7__cxx1112basic_stringIcSt11char_traitsIcESaIcEE6lengthEv(ptr noundef nonnull align 8 dereferenceable(32) %1) #9
  store i64 %call2.i, ptr %Length.i, align 8
  %2 = getelementptr inbounds { ptr, i64 }, ptr %agg.tmp, i32 0, i32 0
  %3 = load ptr, ptr %2, align 8
  %4 = getelementptr inbounds { ptr, i64 }, ptr %agg.tmp, i32 0, i32 1
  %5 = load i64, ptr %4, align 8
  call void @_ZN4llvh3sys22DontRemoveFileOnSignalENS_9StringRefE(ptr %3, i64 %5)
  %TmpName2 = getelementptr inbounds %"class.llvh::sys::fs::TempFile", ptr %this1, i32 0, i32 2
  %call = call noundef nonnull align 8 dereferenceable(32) ptr @_ZNSt7__cxx1112basic_stringIcSt11char_traitsIcESaIcEEaSEPKc(ptr noundef nonnull align 8 dereferenceable(32) %TmpName2, ptr noundef @.str.3)
  %FD = getelementptr inbounds %"class.llvh::sys::fs::TempFile", ptr %this1, i32 0, i32 3
  %6 = load i32, ptr %FD, align 8
  %call3 = call i32 @close(i32 noundef %6)
  %cmp = icmp eq i32 %call3, -1
  br i1 %cmp, label %if.then, label %if.end

if.then:                                          ; preds = %entry
  %call4 = call ptr @__errno_location() #13
  %7 = load i32, ptr %call4, align 4
  %call5 = call noundef nonnull align 8 dereferenceable(8) ptr @_ZNSt3_V216generic_categoryEv() #13
  call void @_ZNSt10error_codeC2EiRKNSt3_V214error_categoryE(ptr noundef nonnull align 8 dereferenceable(16) %EC, i32 noundef %7, ptr noundef nonnull align 8 dereferenceable(8) %call5) #9
  call void @llvm.memcpy.p0.p0.i64(ptr align 8 %agg.tmp6, ptr align 8 %EC, i64 16, i1 false)
  %8 = getelementptr inbounds { i32, ptr }, ptr %agg.tmp6, i32 0, i32 0
  %9 = load i32, ptr %8, align 8
  %10 = getelementptr inbounds { i32, ptr }, ptr %agg.tmp6, i32 0, i32 1
  %11 = load ptr, ptr %10, align 8
  call void @_ZN4llvh16errorCodeToErrorESt10error_code(ptr sret(%"class.llvh::Error") align 8 %agg.result, i32 %9, ptr %11)
  br label %return

if.end:                                           ; preds = %entry
  %FD7 = getelementptr inbounds %"class.llvh::sys::fs::TempFile", ptr %this1, i32 0, i32 3
  store i32 -1, ptr %FD7, align 8
  call void @_ZN4llvh5Error7successEv(ptr sret(%"class.llvh::ErrorSuccess") align 8 %ref.tmp)
  call void @_ZN4llvh5ErrorC2EOS0_(ptr noundef nonnull align 8 dereferenceable(8) %agg.result, ptr noundef nonnull align 8 dereferenceable(8) %ref.tmp)
  call void @_ZN4llvh12ErrorSuccessD2Ev(ptr noundef nonnull align 8 dereferenceable(8) %ref.tmp) #9
  br label %return

return:                                           ; preds = %if.end, %if.then
  ret void
}