; Function Attrs: mustprogress nounwind uwtable
define hidden void @_ZN4llvh3sys2fs8TempFile4keepEv(ptr noalias sret(%"class.llvh::Error") align 8 %agg.result, ptr noundef nonnull align 8 dereferenceable(44) %this) local_unnamed_addr #0 align 2 {
entry:
  store i8 1, ptr %this, align 8
  %TmpName = getelementptr inbounds i8, ptr %this, i64 8
  %call.i = tail call noundef ptr @_ZNKSt7__cxx1112basic_stringIcSt11char_traitsIcESaIcEE4dataEv(ptr noundef nonnull align 8 dereferenceable(32) %TmpName) #29
  %call2.i = tail call noundef i64 @_ZNKSt7__cxx1112basic_stringIcSt11char_traitsIcESaIcEE6lengthEv(ptr noundef nonnull align 8 dereferenceable(32) %TmpName) #29
  tail call void @_ZN4llvh3sys22DontRemoveFileOnSignalENS_9StringRefE(ptr %call.i, i64 %call2.i) #29
  %call = tail call noundef nonnull align 8 dereferenceable(32) ptr @_ZNSt7__cxx1112basic_stringIcSt11char_traitsIcESaIcEEaSEPKc(ptr noundef nonnull align 8 dereferenceable(32) %TmpName, ptr noundef nonnull @.str.3) #29
  %FD = getelementptr inbounds i8, ptr %this, i64 40
  %0 = load i32, ptr %FD, align 8
  %call3 = tail call i32 @close(i32 noundef %0) #29
  %cmp = icmp eq i32 %call3, -1
  br i1 %cmp, label %if.then, label %_ZN4llvh12ErrorSuccessD2Ev.exit

if.then:                                          ; preds = %entry
  %call4 = tail call ptr @__errno_location() #30
  %1 = load i32, ptr %call4, align 4
  %call5 = tail call noundef nonnull align 8 dereferenceable(8) ptr @_ZNSt3_V216generic_categoryEv() #30
  tail call void @_ZN4llvh16errorCodeToErrorESt10error_code(ptr sret(%"class.llvh::Error") align 8 %agg.result, i32 %1, ptr nonnull %call5) #29
  br label %return

_ZN4llvh12ErrorSuccessD2Ev.exit:                  ; preds = %entry
  store i32 -1, ptr %FD, align 8
  store ptr inttoptr (i64 1 to ptr), ptr %agg.result, align 8
  br label %return

return:                                           ; preds = %_ZN4llvh12ErrorSuccessD2Ev.exit, %if.then
  ret void
}